(dp0
Vcommercial_JJ
p1
S'GH4Jp'
p2
sVsearch_NN
p3
S'IV4Sm'
p4
sVperspective_NN
p5
S'd9ldW'
p6
sVfocused_VBD
p7
S'Jofnq'
p8
sVexperience_NN
p9
S'VoSyZ'
p10
sVtargeting_VBG
p11
S'bcM1k'
p12
sVlogical_JJ
p13
S'P3zRV'
p14
sVachieve_VB
p15
S'H3ASi'
p16
sVaction_NNS
p17
S'xTupZ'
p18
sVbetter_RBR
p19
S'0Cv55'
p20
sVwere_VBD
p21
S'vwciR'
p22
sVgovernment_NN
p23
S'AHRBU'
p24
sVdevelopment_NN
p25
S'4FNWM'
p26
sVdeeply_NN
p27
S'hG_k2'
p28
sVmanage_VB
p29
S'ZQlRi'
p30
sVrecession_NNS
p31
S'_H4y0'
p32
sVflow_NN
p33
S'zMhtd'
p34
sVconvincing_VBG
p35
S'oE2lV'
p36
sVhairdresser_NN
p37
S'uGIBX'
p38
sVdeveloping_VBG
p39
S'qmdBg'
p40
sVembodied_VBN
p41
S'QWsdj'
p42
sVnature_NN
p43
S'NZSNn'
p44
sVparticularly_RB
p45
S'jhihD'
p46
sVg_NN
p47
S'HrN06'
p48
sVlinear_VBP
p49
S'oLkVU'
p50
sVwholesale_JJ
p51
S'FrTJz'
p52
sVpast_JJ
p53
S'Op89I'
p54
sVmanifestation_NN
p55
S'6IExc'
p56
sVcultural_JJ
p57
S'3ILiJ'
p58
sVresult_NN
p59
S'lS8lz'
p60
sVorganic_JJ
p61
S'qbkx5'
p62
sVdevice_NNS
p63
S'GybGQ'
p64
sVsupply_NN
p65
S'Pn5JO'
p66
sVpermanent_JJ
p67
S'broW_'
p68
sVunderstands_VBZ
p69
S'uG8Os'
p70
sVnumeric_JJ
p71
S'tfqyF'
p72
sVcontinue_VB
p73
S'3-HbV'
p74
sVresearcher_NNS
p75
S'JQrdY'
p76
sVway_NN
p77
S'mfPke'
p78
sVcost_NNS
p79
S'rR72-'
p80
sVdistribution_NN
p81
S'eCku2'
p82
sVbb_NN
p83
S'fySvI'
p84
sVemploy_VBP
p85
S'dHj_G'
p86
sVentice_VB
p87
S'_VOkL'
p88
sVstart_VBP
p89
S'lomOq'
p90
sVsociety_VB
p91
S'EoT5M'
p92
sVvariable_NNS
p93
S'wDAAR'
p94
sVthus_RB
p95
S'aHQCz'
p96
sVfeeling_VBG
p97
S'q8UD1'
p98
sVbinomial_JJ
p99
S'5CJRa'
p100
sVascertain_VB
p101
S'thg6v'
p102
sVsegment_NN
p103
S'Ke5wC'
p104
sVleather_NN
p105
S'3lbnw'
p106
sVimportant_JJ
p107
S'f07Rj'
p108
sVinventory_NN
p109
S'YNIPz'
p110
sVallegation_NNS
p111
S'--exm'
p112
sVengine_NN
p113
S'qYsU5'
p114
sVqualification_NNS
p115
S'AZsQL'
p116
sVmost_JJS
p117
S'AtA0R'
p118
sVpertains_VBZ
p119
S'Hkrik'
p120
sVlovable_JJ
p121
S'ET_8e'
p122
sVdoesn_NN
p123
S'yhqE3'
p124
sVjapanese_JJ
p125
S'nygJQ'
p126
sVdifferentiation_NN
p127
S'R-0OZ'
p128
sVlimitation_NNS
p129
S'taV5G'
p130
sVfifth_JJ
p131
S'HzKzP'
p132
sVs_JJ
p133
S'K0KKo'
p134
sVrecommender_NN
p135
S'xTR4A'
p136
sVcolumbia_NN
p137
S'VNPdY'
p138
sVthem_PRP
p139
S'Vgk13'
p140
sVhypothesis_NN
p141
S'J_hSW'
p142
sVpreviously_RB
p143
S'xgtKD'
p144
sVaccording_VBG
p145
S'FbWFt'
p146
sVtypical_JJ
p147
S'WXoOF'
p148
sVsandal_NNS
p149
S'y8NA6'
p150
sVneed_VBZ
p151
S'-lgBe'
p152
sVright_NN
p153
S'pu86n'
p154
sVinflation_NN
p155
S'7oZn9'
p156
sVlive_VBP
p157
S'pHjJK'
p158
sVmob_NN
p159
S'kRzM-'
p160
sVmechanism_NNS
p161
S'QYlOD'
p162
sVsuitable_JJ
p163
S'YB5n8'
p164
sVimplies_VBZ
p165
S'vKUie'
p166
sVcase_NN
p167
S'YHYlE'
p168
sVinclude_VBP
p169
S'Rm6X1'
p170
sVoriented_VBN
p171
S'X1j4u'
p172
sVrequired_VBN
p173
S'ZfDra'
p174
sVinconsistency_NN
p175
S'T7gGA'
p176
sVpersonalized_JJ
p177
S'tKS2u'
p178
sVr_NN
p179
S'sgYBA'
p180
sVquickly_RB
p181
S'BdYET'
p182
sVexist_VBP
p183
S'cyD14'
p184
sVworld_NN
p185
S'I09vF'
p186
sVwill_MD
p187
S'dxjjz'
p188
sVregulatory_JJ
p189
S'_CsyP'
p190
sVappear_VB
p191
S'cMONo'
p192
sVdiffers_NNS
p193
S'-TAbN'
p194
sVcontent_NN
p195
S'jNC4J'
p196
sVaccepting_VBG
p197
S'lAn6z'
p198
sVadapt_VB
p199
S'ZQ5dx'
p200
sVthat_DT
p201
S'zpyAs'
p202
sVessential_JJ
p203
S'cobeo'
p204
sVtangible_JJ
p205
S'thkk6'
p206
sVemphasis_NN
p207
S'XLPoF'
p208
sVuncontrollable_JJ
p209
S'vrodz'
p210
sValthough_IN
p211
S'hZrPo'
p212
sVsnail_JJ
p213
S'IFom5'
p214
sVimpact_NN
p215
S'JE1bo'
p216
sVanother_DT
p217
S'yS4Td'
p218
sVselling_NN
p219
S'eoULA'
p220
sVtheory_NN
p221
S'0VQRq'
p222
sVwireless_NN
p223
S'8uM8Q'
p224
sVsong_NNS
p225
S'1d2Pu'
p226
sVsell_VB
p227
S'6_nR9'
p228
sVgoogle_JJ
p229
S'bnnaT'
p230
sVlife_NNS
p231
S'MrRws'
p232
sVcoverage_NN
p233
S'pKmei'
p234
sVbrowser_VBP
p235
S'LOndx'
p236
sVmoreover_RB
p237
S'4_LlY'
p238
sVonto_IN
p239
S'LhxX-'
p240
sVfailure_NN
p241
S'twrUj'
p242
sVapproach_NN
p243
S'9yddN'
p244
sVfailure_NNS
p245
S'zYPlw'
p246
sVderive_VB
p247
S'DF7my'
p248
sVdispatch_VB
p249
S'Slsmb'
p250
sVknowledge_NN
p251
S'cEtk3'
p252
sVchain_NN
p253
S'ZMFUI'
p254
sVorganization_NN
p255
S'iuWRp'
p256
sVtactic_NNS
p257
S'_lazk'
p258
sVthat_WDT
p259
S'vFfOk'
p260
sVplan_VB
p261
S'hask5'
p262
sVviewed_VBN
p263
S'LePv7'
p264
sVusually_RB
p265
S'Quxpy'
p266
sVmight_MD
p267
S'1TGWx'
p268
sVreach_VB
p269
S'1RxuU'
p270
sVonline_JJ
p271
S'phB0x'
p272
sVbroadcast_NN
p273
S'BQqmK'
p274
sVdoe_VBZ
p275
S'7beTP'
p276
sVagreement_NNS
p277
S'mLPfr'
p278
sVcall_NN
p279
S'ALm9U'
p280
sVleading_VBG
p281
S'2leLj'
p282
sVinstitute_NN
p283
S'4DvYs'
p284
sValternative_JJ
p285
S'SVyn-'
p286
sVforging_VBG
p287
S'GwJkz'
p288
sVcommunication_NNS
p289
S'mcfbZ'
p290
sVrequirement_NNS
p291
S'1Fxso'
p292
sVinternet_JJ
p293
S'XubwG'
p294
sVwidened_VBN
p295
S'9_ZoA'
p296
sVdefinition_NNS
p297
S'rEeO-'
p298
sVentering_VBG
p299
S'3QEXb'
p300
sVcapability_NN
p301
S'AFSeP'
p302
sVfrosties_NNS
p303
S'B2PXp'
p304
sVsend_VB
p305
S'zwVIU'
p306
sVscan_NN
p307
S'A-MXx'
p308
sVof_IN
p309
S'DWK5-'
p310
sVplatform_NNS
p311
S'ONXx1'
p312
sVdepartment_NN
p313
S'XfhfJ'
p314
sVmedium_NN
p315
S'YZ7Br'
p316
sVcard_NN
p317
S'OJLvJ'
p318
sVbranding_NN
p319
S'MDDhu'
p320
sVexplain_VB
p321
S'yofZ9'
p322
sVreplacement_NN
p323
S'lYQcC'
p324
sVscience_NN
p325
S'4w3RZ'
p326
sVprinciple_NN
p327
S'seaFm'
p328
sVrelationship_NN
p329
S'Lvry4'
p330
sVgiven_VBN
p331
S'rK8yK'
p332
sVtest_NNS
p333
S'5538g'
p334
sVusing_VBG
p335
S'a9P3f'
p336
sVmap_NN
p337
S'ntfUz'
p338
sVon_IN
p339
S'pcRsZ'
p340
sVactually_RB
p341
S'u5b8-'
p342
sVjob_NN
p343
S'HfGl6'
p344
sVstore_NNS
p345
S'KeXJg'
p346
sVall_DT
p347
S'6gn5H'
p348
sVspeaking_VBG
p349
S'4angG'
p350
sVsubjective_JJ
p351
S'J40N7'
p352
sVidentified_VBN
p353
S'VBtN6'
p354
sVstorage_NN
p355
S'nlJqA'
p356
sVgrows_VBZ
p357
S'Ir64l'
p358
sVregression_NN
p359
S'QlIBY'
p360
sVsub_NN
p361
S'kKvL_'
p362
sVsense_NN
p363
S'4ycHv'
p364
sVregion_NNS
p365
S'2YivR'
p366
sVmicroenvironment_NN
p367
S'mffVE'
p368
sVvariability_NN
p369
S'O4pqN'
p370
sVthree_CD
p371
S'jnJdL'
p372
sVmean_NNS
p373
S'sik1H'
p374
sVneil_JJ
p375
S'_KDqA'
p376
sVfollowing_VBG
p377
S'Ymlpu'
p378
sVincumbent_JJ
p379
S'nZT0p'
p380
sVattached_VBD
p381
S'rTGA0'
p382
sVsocial_JJ
p383
S'jlkD6'
p384
sVconsumer_NNS
p385
S'hH55C'
p386
sVcreating_VBG
p387
S'4-ky9'
p388
sVrtb_JJ
p389
S'-e98K'
p390
sVfamiliar_JJ
p391
S'HRJpf'
p392
sVbeing_VBG
p393
S'NoI88'
p394
sVinternal_JJ
p395
S'_izpO'
p396
sVarea_NNS
p397
S'beYwr'
p398
sVcalled_VBN
p399
S'vozSS'
p400
sVacquires_VBZ
p401
S'OV-Fp'
p402
sVsegmenting_VBG
p403
S'NL3OL'
p404
sVcalled_VBD
p405
S'R4s8P'
p406
sVplacement_NN
p407
S'9dzBB'
p408
sVahead_RB
p409
S'URE5D'
p410
sVaim_NN
p411
S'PooWg'
p412
sVart_RB
p413
S'THiHi'
p414
sVpersonal_JJ
p415
S'4KNNH'
p416
sVelement_NNS
p417
S'sJfU7'
p418
sVlog_JJ
p419
S'wGDpE'
p420
sVcontinually_RB
p421
S'uts_D'
p422
sVbuilding_NN
p423
S'NBnz2'
p424
sVbusiness_NN
p425
S'XSnv3'
p426
sVtelex_NN
p427
S'NjAZm'
p428
sVposse_VBZ
p429
S'_UjK0'
p430
sVattitude_NNS
p431
S'KCZ1M'
p432
sVprocess_NNS
p433
S'2okYC'
p434
sVvarious_JJ
p435
S'dVhXE'
p436
sVability_NN
p437
S'wIcBI'
p438
sVimportance_NN
p439
S'BKMps'
p440
sVkind_NN
p441
S'-UBhS'
p442
sVyet_RB
p443
S'LAJMG'
p444
sVceasing_NN
p445
S'fSbTy'
p446
sVprior_RB
p447
S'ijzsI'
p448
sVmkis_NN
p449
S'HzqaV'
p450
sVorientation_NNS
p451
S'v3_q-'
p452
sVnevertheless_RB
p453
S'X_H38'
p454
sVdifferent_JJ
p455
S'9E5Sx'
p456
sVseen_VBN
p457
S'DfQNL'
p458
sVchoice_NNS
p459
S'J9EG0'
p460
sVorder_NN
p461
S'qcOx5'
p462
sVappropriateness_NN
p463
S'ERKp_'
p464
sVformulate_VB
p465
S'DIOk_'
p466
sVtechnological_JJ
p467
S'08Q0D'
p468
sVraise_VBZ
p469
S'-G0bQ'
p470
sVmaterial_NN
p471
S'_Xam2'
p472
sVtheory_NNS
p473
S'ju7kT'
p474
sVinstance_NN
p475
S'sMexi'
p476
sVcustomer_NN
p477
S'vYDo1'
p478
sVdo_VB
p479
S'Owc_0'
p480
sVmotivation_NNS
p481
S'yVoPl'
p482
sVpress_NN
p483
S'ZBYa0'
p484
sVinto_IN
p485
S'KNe11'
p486
sVpresence_NN
p487
S'4p5V5'
p488
sVconform_VB
p489
S'a2T6i'
p490
sVlarge_JJ
p491
S'P9XqS'
p492
sVput_VBD
p493
S'buINV'
p494
sVstudy_NNS
p495
S'7bQHD'
p496
sVwebsite_NN
p497
S'6n8rA'
p498
sVgive_VB
p499
S'L6yYN'
p500
sVincur_VB
p501
S'KVw9v'
p502
sVdivest_NN
p503
S'hLxco'
p504
sVserve_VB
p505
S'5abkw'
p506
sVtactical_JJ
p507
S'M9qgV'
p508
sVtarget_VBZ
p509
S'4CNXQ'
p510
sVguide_VB
p511
S'KJhCZ'
p512
sVdependency_NNS
p513
S'g_XDH'
p514
sVitself_PRP
p515
S'DJr9t'
p516
sVsomeone_NN
p517
S'N-J9K'
p518
sVinterpret_VB
p519
S'3kP61'
p520
sVbureaucracy_NN
p521
S'REquo'
p522
sVdetermined_VBN
p523
S'QioQt'
p524
sVgained_VBN
p525
S'T21JG'
p526
sVforce_NNS
p527
S'o9JCH'
p528
sVdesire_NN
p529
S'w3Z4e'
p530
sVinvolvement_JJ
p531
S'Xv457'
p532
sVactively_RB
p533
S'uEf6P'
p534
sVsubject_NN
p535
S'An_Ma'
p536
sVcomprising_VBG
p537
S'uKgbl'
p538
sVdecision_NN
p539
S'10CbF'
p540
sVbc_NN
p541
S'gZ5O3'
p542
sVmanner_NN
p543
S'GQ9ao'
p544
sVattract_VB
p545
S'7UWtY'
p546
sVrefer_VBP
p547
S'hBbp_'
p548
sVmeso_NN
p549
S'9QZAQ'
p550
sVdemand_VBP
p551
S'k9VrD'
p552
sVpoint_NN
p553
S'dd50T'
p554
sVlater_RB
p555
S'HGhaX'
p556
sVeach_DT
p557
S'rX-AN'
p558
sVcentric_JJ
p559
S'TtCEG'
p560
sVadhere_RB
p561
S'L_DZg'
p562
sVmembership_NN
p563
S'xLcfX'
p564
sVespecially_RB
p565
S'Q1Ncx'
p566
sVlittle_JJ
p567
S'TblNx'
p568
sVconnected_VBN
p569
S'L6NkC'
p570
sVpertain_VB
p571
S'5Q3yR'
p572
sVthroughout_IN
p573
S'fK8mo'
p574
sVselection_NN
p575
S'KeNnt'
p576
sVconsider_VBP
p577
S'hgksu'
p578
sVrelationship_NNS
p579
S'S_9uq'
p580
sVcommunication_NN
p581
S'ZVyGt'
p582
sVbid_VB
p583
S'D-Q46'
p584
sVmany_JJ
p585
S'4wJ-P'
p586
sVinclude_VB
p587
S'Ct6Ay'
p588
sVbrand_NN
p589
S'_jBmr'
p590
sVchanging_VBG
p591
S'yK6IG'
p592
sVbut_CC
p593
S'C7FrG'
p594
sVtaken_VBN
p595
S'Y2UGQ'
p596
sVsince_IN
p597
S'a59AB'
p598
sVbased_VBN
p599
S'omOG7'
p600
sVinfluence_NN
p601
S'Uvc9K'
p602
sVcontext_NN
p603
S'RdbPn'
p604
sVad_NN
p605
S'CSnNj'
p606
sVinvolve_VB
p607
S'opuMF'
p608
sVgauge_VBP
p609
S'f2zS_'
p610
sVprocessing_NN
p611
S'pQRtB'
p612
sVsun_NN
p613
S'N4uE6'
p614
sVpotential_JJ
p615
S'v6bJu'
p616
sVuser_NN
p617
S'BRnRw'
p618
sVpromptness_NN
p619
S'4HWWR'
p620
sVidentity_NNS
p621
S'yDbl_'
p622
sVbasic_JJ
p623
S'shgxI'
p624
sVtype_NNS
p625
S'tX82F'
p626
sVassistant_NN
p627
S'KtJjD'
p628
sVproduct_NN
p629
S'G5GDa'
p630
sVoverhauled_VBD
p631
S'LREwe'
p632
sVassociated_VBN
p633
S'-_Va1'
p634
sVtotal_JJ
p635
S'Qobcn'
p636
sVproperty_NNS
p637
S'Yc4zv'
p638
sVmobile_NN
p639
S'FCRea'
p640
sVdynamic_NN
p641
S'DKsBU'
p642
sVspan_VBZ
p643
S'1tMg9'
p644
sVexperienced_VBN
p645
S'MZlSU'
p646
sVuser_NNS
p647
S'qrp_q'
p648
sVused_VBN
p649
S'V5yPf'
p650
sVquite_RB
p651
S'SDBPD'
p652
sVimportation_NN
p653
S'OgMEf'
p654
sVrisk_NN
p655
S'zTk-G'
p656
sVtype_NN
p657
S'WgXqn'
p658
sVnetworking_NN
p659
S'ckEgr'
p660
sVaspect_NN
p661
S'SMiAt'
p662
sVshoe_NNS
p663
S'owYTt'
p664
sVweb_JJ
p665
S'nsGG-'
p666
sVearlier_JJR
p667
S'bz5AB'
p668
sVother_JJ
p669
S'TcHrQ'
p670
sVnational_JJ
p671
S'v6xqh'
p672
sVexisting_VBG
p673
S'ef6Is'
p674
sVexpensive_JJ
p675
S'69T23'
p676
sVspecific_JJ
p677
S'FNPUq'
p678
sVc_NN
p679
S'9FN7j'
p680
sVrestaurant_NN
p681
S'iinTR'
p682
sVmccarthy_NN
p683
S'-rXWA'
p684
sVconcept_NNS
p685
S'lkyL2'
p686
sVrecent_JJ
p687
S'UdAtN'
p688
sVadvancement_NNS
p689
S'NWLw-'
p690
sVpush_NN
p691
S'MKf06'
p692
sVsuccess_NN
p693
S'KDLBE'
p694
sVumbrella_JJ
p695
S'VhK-s'
p696
sVpaying_VBG
p697
S'pzh9x'
p698
sVrelates_NNS
p699
S'vg7lQ'
p700
sVdefined_VBN
p701
S'8ugZj'
p702
sVincrease_NN
p703
S'8LRpw'
p704
sVscenario_NNS
p705
S'YjWzY'
p706
sVdefined_VBD
p707
S'Z258w'
p708
sVamerican_JJ
p709
S'jiTN7'
p710
sVdepartment_NNS
p711
S'tWScL'
p712
sVwestern_JJ
p713
S'yM2hD'
p714
sVpay_VB
p715
S'Gk2C6'
p716
sVintroduced_VBN
p717
S'gHr_N'
p718
sVrevenue_NNS
p719
S'V8sT5'
p720
sVsimply_RB
p721
S'l605F'
p722
sVtheoretical_JJ
p723
S'77Jt7'
p724
sVgrowing_VBG
p725
S'NPRr7'
p726
sVindustry_NNS
p727
S'DFael'
p728
sVprototype_NN
p729
S'ra4rj'
p730
sVmodel_NN
p731
S'9alBh'
p732
sVand_CC
p733
S'ucz8D'
p734
sVemerged_JJ
p735
S'g7xTd'
p736
sVcannot_NN
p737
S'2OMDu'
p738
sVcornflakes_NNS
p739
S'4pwd8'
p740
sVdiffer_VBP
p741
S'g5Jyo'
p742
sVnumber_NN
p743
S'LhmiW'
p744
sVtime_NN
p745
S'ommWi'
p746
sVmay_MD
p747
S'zPW45'
p748
sVcomputer_NN
p749
S'NbnV5'
p750
sVinformation_NN
p751
S'Hwxk5'
p752
sVhold_VB
p753
S'Ls0ia'
p754
sVattribute_NNS
p755
S'LpABW'
p756
sVinfluence_NNS
p757
S'CgnbD'
p758
sVhold_VBZ
p759
S'Grs1M'
p760
sVsafety_NN
p761
S'r8Y8r'
p762
sVanalysis_NN
p763
S'HWE-0'
p764
sVcorruption_NN
p765
S'K6wty'
p766
sVusage_NN
p767
S'R_EYH'
p768
sVrestriction_NN
p769
S'HzoMV'
p770
sVconcurrently_RB
p771
S'Pxd6l'
p772
sVtitled_VBD
p773
S'F6aGb'
p774
sVinterpretation_NN
p775
S'y_tR4'
p776
sVappealing_VBG
p777
S'Pf937'
p778
sVstem_VBP
p779
S'b1B3y'
p780
sVexclusive_JJ
p781
S'_kUgC'
p782
sVposse_VB
p783
S'PUoHE'
p784
sVdevelopment_NNS
p785
S'6ivnr'
p786
sVprepare_VB
p787
S'U4AZb'
p788
sVcondition_NNS
p789
S'Hm4Fw'
p790
sVguerrilla_NN
p791
S'MOgbI'
p792
sVtrain_NN
p793
S'c6MJd'
p794
sVpositioning_NN
p795
S'GNpox'
p796
sVunderstanding_NN
p797
S'6_hw5'
p798
sVpolicy_NNS
p799
S'uvLI_'
p800
sVdriver_NNS
p801
S'MjcbP'
p802
sVhardware_NN
p803
S'-uUEA'
p804
sVseparated_VBN
p805
S'2d9Qd'
p806
sVinterpreted_VBN
p807
S'FXc-A'
p808
sVemployed_VBN
p809
S'3nzYe'
p810
sVrate_NN
p811
S'mRc5E'
p812
sVsurroundings_NNS
p813
S'rZq4w'
p814
sVsource_NNS
p815
S'Lsj8z'
p816
sVincluded_JJ
p817
S'jchJS'
p818
sVexistence_VB
p819
S'JglCo'
p820
sVwithin_IN
p821
S'EPVJF'
p822
sVmatter_NN
p823
S'aIiOX'
p824
sVrefers_VBZ
p825
S'K1Hfy'
p826
sVstand_NNS
p827
S'uy7e1'
p828
sVadapt_VBP
p829
S'drCIx'
p830
sVperusing_VBG
p831
S'3rxog'
p832
sVdevelop_VB
p833
S'7eeKB'
p834
sVformally_RB
p835
S'-Bc9W'
p836
sVconcept_NN
p837
S'qgM_5'
p838
sVcontrast_NN
p839
S'BvZjz'
p840
sVlife_NN
p841
S'pJqDe'
p842
sVproduced_VBN
p843
S'sryEZ'
p844
sVbenefit_NNS
p845
S'avSKd'
p846
sVpure_NN
p847
S'Av5p2'
p848
sVmainly_RB
p849
S'LWZu1'
p850
sVenhancing_VBG
p851
S'0CLBO'
p852
sVstrand_NNS
p853
S'Q6u_g'
p854
sVfocus_NN
p855
S'gtNIZ'
p856
sVfirm_NNS
p857
S'h0uKf'
p858
sVunderstanding_VBG
p859
S'TixDG'
p860
sVvisual_JJ
p861
S'DeSeb'
p862
sVmaker_NN
p863
S'_E-YN'
p864
sVdifference_NNS
p865
S'R8Pta'
p866
sVsatisfies_NNS
p867
S'9l5o9'
p868
sVbuying_VBG
p869
S'KjL3G'
p870
sVlong_JJ
p871
S'RF4LH'
p872
sVnumerous_JJ
p873
S'R-o5K'
p874
sVcorporate_JJ
p875
S'RKAeC'
p876
sVquantitative_JJ
p877
S'neVeN'
p878
sVuniversity_JJ
p879
S'uFQgl'
p880
sVchild_NNS
p881
S'hbzI_'
p882
sVnetwork_NN
p883
S'r6tks'
p884
sVbidder_NNS
p885
S'1ZKzA'
p886
sVprecisely_RB
p887
S'dwpx8'
p888
sVlow_JJ
p889
S'mh9jJ'
p890
sVtrait_NNS
p891
S'Hh7RD'
p892
sVrevolution_NN
p893
S'TiW2L'
p894
sVadapted_VBN
p895
S'-aQY7'
p896
sVassociation_NN
p897
S'XEBOM'
p898
sVobjective_NNS
p899
S'yNbc3'
p900
sVto_TO
p901
S'qP0aE'
p902
sVchange_NNS
p903
S'rHChD'
p904
sVhave_VBP
p905
S'_5V6Z'
p906
sVexpenditure_NN
p907
S'JcYsH'
p908
sVeither_DT
p909
S'qI76Y'
p910
sVproducing_VBG
p911
S'8SLLx'
p912
sVmake_VB
p913
S'VX_T5'
p914
sVright_JJ
p915
S'nZ0tL'
p916
sVface_VB
p917
S'rG3ce'
p918
sVswarm_NN
p919
S'_kFch'
p920
sVthan_IN
p921
S'WTuy1'
p922
sVpertaining_VBG
p923
S'SnSwO'
p924
sVunknown_JJ
p925
S'sl_Pa'
p926
sVcreation_NN
p927
S'LQ2tm'
p928
sVcollection_NN
p929
S'4iU0c'
p930
sVcompared_VBN
p931
S'4HULF'
p932
sVindirectly_RB
p933
S'TsjoK'
p934
sVmessage_NNS
p935
S'rOYxI'
p936
sVonly_RB
p937
S'UddTN'
p938
sVreceptive_JJ
p939
S'5zD1H'
p940
sVlink_NN
p941
S'G9bUu'
p942
sVhistory_NN
p943
S'T4WWY'
p944
sVsenior_JJ
p945
S'wKG1V'
p946
sVdelivery_NN
p947
S'ffLqz'
p948
sVsuccessfully_RB
p949
S'uUeFR'
p950
sVtouched_VBN
p951
S'8Kpfi'
p952
sVminded_JJ
p953
S'SZOxH'
p954
sVoppose_VB
p955
S'JuQdz'
p956
sVthrough_IN
p957
S'2mILv'
p958
sVthese_DT
p959
S'AbOWl'
p960
sVdecision_NNS
p961
S'fQXvm'
p962
sVspectrum_NN
p963
S'v3inK'
p964
sVvolume_NN
p965
S'IleoU'
p966
sVanalytics_NNS
p967
S'rRzgq'
p968
sVcomprehend_VB
p969
S'bQfUf'
p970
sVoutside_IN
p971
S'hAJWo'
p972
sVsuch_JJ
p973
S'3Abr7'
p974
sVby_IN
p975
S'7ZvNK'
p976
sVcompany_NNS
p977
S'NbH8F'
p978
sVviability_NN
p979
S'7dngf'
p980
sVnewer_JJR
p981
S'EOcb3'
p982
sVpersuade_VB
p983
S'7F-PX'
p984
sVresearch_NN
p985
S'3jqbA'
p986
sVchi_VBP
p987
S'O1xXS'
p988
sVdismissive_JJ
p989
S'ATYjT'
p990
sVcognitive_JJ
p991
S'mWB7u'
p992
sVpricing_NN
p993
S'yO6Gq'
p994
sVperception_NN
p995
S'yTKJl'
p996
sVchange_NN
p997
S'hlb6D'
p998
sVkey_JJ
p999
S'qjq4k'
p1000
sVfunctioning_VBG
p1001
S'x0SOG'
p1002
sVtelevision_NN
p1003
S'APbqg'
p1004
sVfood_NN
p1005
S'n71aj'
p1006
sVmanufacturer_NN
p1007
S'kJBDJ'
p1008
sVlatest_JJS
p1009
S'-hr9H'
p1010
sVgood_NNS
p1011
S'g-T5S'
p1012
sVbegun_VBN
p1013
S'jtXt1'
p1014
sVgo_VBP
p1015
S'k3DRi'
p1016
sVfrom_IN
p1017
S'qM7lx'
p1018
sVapplication_NNS
p1019
S'gxrsZ'
p1020
sVplace_VB
p1021
S'viY0Q'
p1022
sVdevising_VBG
p1023
S'SHPok'
p1024
sVretailer_NNS
p1025
S'TLkga'
p1026
sVadaptive_JJ
p1027
S'l6RaI'
p1028
sVsupermarket_NNS
p1029
S'7uqts'
p1030
sVanalyze_VB
p1031
S'h4zBi'
p1032
sVrespond_VB
p1033
S'8eUnU'
p1034
sValtogether_RB
p1035
S'm-TZG'
p1036
sVdirect_JJ
p1037
S'HXC_m'
p1038
sVhinder_VB
p1039
S'smrnz'
p1040
sVinnovation_NNS
p1041
S'fhIjv'
p1042
sVdepending_VBG
p1043
S'xKo5m'
p1044
sVframework_NN
p1045
S'rJ5Sa'
p1046
sVamazon_NN
p1047
S'RTc3r'
p1048
sVadvertising_VBG
p1049
S'DGt2E'
p1050
sVpostal_JJ
p1051
S'Do6br'
p1052
sVtwo_CD
p1053
S'6UDJK'
p1054
sVorganisation_NNS
p1055
S'hI88f'
p1056
sVgoogle_NN
p1057
S'wv4TZ'
p1058
sVlegality_NN
p1059
S'66_Au'
p1060
sVconducting_VBG
p1061
S'j0cyU'
p1062
sVexplains_VBZ
p1063
S'Ozkwi'
p1064
sVseries_NN
p1065
S'jOESf'
p1066
sVfield_NN
p1067
S'VD4e6'
p1068
sVpeople_NNS
p1069
S'HIEFu'
p1070
sVevery_DT
p1071
S'SjRgu'
p1072
sVdirectly_RB
p1073
S'b6zvA'
p1074
sVreported_VBD
p1075
S'5VarG'
p1076
sVused_JJ
p1077
S'UXRh8'
p1078
sVu_PRP
p1079
S'JYK-D'
p1080
sVhealthy_JJ
p1081
S'1MfK7'
p1082
sVtoyota_JJ
p1083
S'itIlO'
p1084
sVwould_MD
p1085
S'IBRIe'
p1086
sVexponential_JJ
p1087
S'C9J57'
p1088
sVsolid_JJ
p1089
S'TKrJH'
p1090
sVtaking_VBG
p1091
S'dDVK4'
p1092
sVattempt_VBZ
p1093
S'eYE7u'
p1094
sVshoe_NN
p1095
S'Z_OAU'
p1096
sVspecialized_JJ
p1097
S'J90dX'
p1098
sVpopularity_NN
p1099
S'TOEP8'
p1100
sVevolved_VBD
p1101
S'xMiOw'
p1102
sVcompany_NN
p1103
S'eqrWZ'
p1104
sVvendor_JJ
p1105
S'QG-l6'
p1106
sVreport_NN
p1107
S'z4vf9'
p1108
sVbase_NN
p1109
S'cuMwO'
p1110
sVoverall_JJ
p1111
S'vys0V'
p1112
sVinternet_VB
p1113
S'UDkbt'
p1114
sVmail_NN
p1115
S'K0vuU'
p1116
sVstatistical_JJ
p1117
S'Q2DYX'
p1118
sVwidely_RB
p1119
S'7yxeY'
p1120
sVetc_VBP
p1121
S'4rlXF'
p1122
sVconduct_VB
p1123
S'L19S1'
p1124
sVwhich_WDT
p1125
S'-O46j'
p1126
sVmore_RBR
p1127
S'08n5k'
p1128
sVdemographic_NNS
p1129
S'K8YIA'
p1130
sVend_NN
p1131
S'_uiFX'
p1132
sVconsumerism_NN
p1133
S'34Rqd'
p1134
sVrome_NN
p1135
S'sav8-'
p1136
sVtargeted_VBN
p1137
S'8Dn-z'
p1138
sVplatform_NN
p1139
S'pv_ja'
p1140
sVinvolves_VBZ
p1141
S'pccQu'
p1142
sVfast_JJ
p1143
S'ckTYq'
p1144
sVvalue_NN
p1145
S'0oyby'
p1146
sVoriginally_RB
p1147
S'laV7x'
p1148
sVeconomy_NN
p1149
S'JAmqi'
p1150
sVattention_NN
p1151
S'FJwQ6'
p1152
sVinsufficient_JJ
p1153
S'JexqF'
p1154
sVscan_NNS
p1155
S'qL-ZL'
p1156
sVinseparability_NN
p1157
S'TX-dv'
p1158
sVgovernment_NNS
p1159
S'd7pPk'
p1160
sVsimple_JJ
p1161
S'oYxhp'
p1162
sVopportunity_NN
p1163
S'RuU60'
p1164
sVunderstand_VB
p1165
S'DAuaj'
p1166
sVcost_NN
p1167
S'4b_WX'
p1168
sVrelevant_JJ
p1169
S'P6NAF'
p1170
sVaudience_NNS
p1171
S'jzFqD'
p1172
sVscenario_NN
p1173
S'8CL4_'
p1174
sVbehavior_NNS
p1175
S'BRPlI'
p1176
sVcomplete_JJ
p1177
S'NnMry'
p1178
sVthreat_NNS
p1179
S'NQ7ld'
p1180
sVdiet_NN
p1181
S'YP5HH'
p1182
sVaffect_VB
p1183
S'xVhFS'
p1184
sVreach_NN
p1185
S'aXlEG'
p1186
sVview_NN
p1187
S'C5Mwu'
p1188
sVintangibility_NN
p1189
S'fYAie'
p1190
sVdevise_VB
p1191
S'jxEi_'
p1192
sVdepth_NN
p1193
S'78FL-'
p1194
sVuse_NN
p1195
S'zse3f'
p1196
sVemploy_VB
p1197
S'6-OV5'
p1198
sVcurrent_JJ
p1199
S'f5j1r'
p1200
sVrtb_NN
p1201
S'E_J9J'
p1202
sVgood_JJ
p1203
S'sbk9h'
p1204
sVbelow_IN
p1205
S'qT0YF'
p1206
sVbuild_VB
p1207
S'hUoVo'
p1208
sVdiminish_VB
p1209
S'gR55Y'
p1210
sVidentification_NN
p1211
S'Hj0P4'
p1212
sVaid_VB
p1213
S'fvhcZ'
p1214
sVenhanced_JJ
p1215
S'jFZeN'
p1216
sVpattern_NNS
p1217
S'bJ8q2'
p1218
sVlesson_NNS
p1219
S'TYmhh'
p1220
sVsix_CD
p1221
S'I9hrl'
p1222
sVbehavior_NN
p1223
S'NpEh-'
p1224
sVsimilarity_NNS
p1225
S'W5po5'
p1226
sVcarry_VB
p1227
S'ab_5K'
p1228
sVcell_NNS
p1229
S'YlqLz'
p1230
sVcitation_NN
p1231
S'n9qzk'
p1232
sVyork_NN
p1233
S'280MM'
p1234
sVidea_NN
p1235
S'T-WAc'
p1236
sVstage_NNS
p1237
S'WYxeR'
p1238
sVlaptop_JJ
p1239
S'apfjp'
p1240
sVmedium_NNS
p1241
S'x0Rzb'
p1242
sVkellogg_NN
p1243
S'rgK4o'
p1244
sVcitizen_NNS
p1245
S'xxEcS'
p1246
sVneeded_VBD
p1247
S'8y4Cp'
p1248
sVneeded_VBN
p1249
S'Vzeyd'
p1250
sVmajor_JJ
p1251
S'WhuZJ'
p1252
sVover_IN
p1253
S'wjDAm'
p1254
sVdimension_NNS
p1255
S'_kTC4'
p1256
sVapplicable_JJ
p1257
S'wovEO'
p1258
sVconsumed_VBN
p1259
S'-A_56'
p1260
sVthat_IN
p1261
S'13SCl'
p1262
sVa_IN
p1263
S'zyp2Y'
p1264
sVproductive_JJ
p1265
S'yxycO'
p1266
sVessentially_RB
p1267
S'zpsEv'
p1268
sVmaking_NN
p1269
S'7CyTX'
p1270
sVdemonstration_NN
p1271
S'C1JJ3'
p1272
sVsolely_RB
p1273
S'EEnno'
p1274
sVneuroscience_NN
p1275
S'i69Lb'
p1276
sVdesired_VBD
p1277
S'u8w3W'
p1278
sVcereal_NN
p1279
S'A_ogy'
p1280
sVeverything_NN
p1281
S'4G1FS'
p1282
sVus_VBZ
p1283
S'2ZuOY'
p1284
sVcriterion_NNS
p1285
S'03k5D'
p1286
sVmacro_NN
p1287
S'eaFyk'
p1288
sVpower_NN
p1289
S'en4Mc'
p1290
sVattests_NNS
p1291
S'BmcpD'
p1292
sVtactic_NN
p1293
S'Q5Fbm'
p1294
sVactivity_NNS
p1295
S'tP99K'
p1296
sVapproach_VBP
p1297
S'bxM4Y'
p1298
sVnumerical_JJ
p1299
S'HJnAG'
p1300
sVawareness_NN
p1301
S'5oPMO'
p1302
sVherd_NN
p1303
S'_ei6s'
p1304
sVmuch_JJ
p1305
S'yPnul'
p1306
sVexperience_VB
p1307
S'MxOF1'
p1308
sVsearch_VB
p1309
S'_D_WV'
p1310
sVhow_WRB
p1311
S'jH-Gb'
p1312
sVthis_DT
p1313
S'UXaQH'
p1314
sVrole_NNS
p1315
S'wML9e'
p1316
sVeffective_JJ
p1317
S'hLj1B'
p1318
sVprofile_NN
p1319
S'V8DYI'
p1320
sVlike_IN
p1321
S'KLDnN'
p1322
sVside_NN
p1323
S'hrQKQ'
p1324
sVtarget_NN
p1325
S'yX9Pb'
p1326
sVcolleague_NNS
p1327
S'gzdAS'
p1328
sVsociety_NNS
p1329
S'_GSl7'
p1330
sVbarrier_NNS
p1331
S'UVwrx'
p1332
sVcreate_VB
p1333
S'eK5WP'
p1334
sVwholly_RB
p1335
S'5NgTd'
p1336
sVstrong_JJ
p1337
S'tPYc5'
p1338
sVpackage_VB
p1339
S'ZaWKR'
p1340
sVcould_MD
p1341
S'G2ohv'
p1342
sVdesktop_NN
p1343
S'm675F'
p1344
sVout_RP
p1345
S'fMwb7'
p1346
sVfor_IN
p1347
S'0DBKy'
p1348
sVsneaker_NNS
p1349
S'gTUna'
p1350
sVinterpret_JJ
p1351
S'GyK4j'
p1352
sVare_VBP
p1353
S'vZUIW'
p1354
sVrelatively_RB
p1355
S'TacxF'
p1356
sVinexpensive_JJ
p1357
S'msP2_'
p1358
sVoutmoded_VBD
p1359
S'Muu0K'
p1360
sVinform_VB
p1361
S'QBSYx'
p1362
sVpromote_VB
p1363
S'cVeic'
p1364
sVdesigning_VBG
p1365
S'I6VRz'
p1366
sVmix_NN
p1367
S'OHWs2'
p1368
sVpage_NN
p1369
S'Gdw-8'
p1370
sVcomponent_NNS
p1371
S'nG6z3'
p1372
sVcompetitor_NNS
p1373
S'TYIsF'
p1374
sVpertain_NN
p1375
S'g05As'
p1376
sVownership_NN
p1377
S'p0u5x'
p1378
sVpreference_NNS
p1379
S'2GrfZ'
p1380
sVcommunicating_VBG
p1381
S'KHscP'
p1382
sVsize_NN
p1383
S'M6YQ8'
p1384
sVsocio_JJ
p1385
S'ixpdq'
p1386
sVage_NN
p1387
S'A9UGU'
p1388
sVorder_NNS
p1389
S'4LLna'
p1390
sVmutual_JJ
p1391
S'rED0r'
p1392
sVreworded_VBN
p1393
S'jkOfb'
p1394
sVoffering_VBG
p1395
S'w1AZS'
p1396
sVwork_NN
p1397
S'w81HY'
p1398
sVfirst_JJ
p1399
S'xmIOe'
p1400
sVpost_NN
p1401
S'jZ4Nv'
p1402
sVuniquely_RB
p1403
S'pGxI1'
p1404
sVsmart_JJ
p1405
S'wlITU'
p1406
sVrecently_RB
p1407
S'DpzuS'
p1408
sVfashion_NN
p1409
S'pASLR'
p1410
sVdesire_NNS
p1411
S'm8y4e'
p1412
sVso_RB
p1413
S'ntbwn'
p1414
sVcaution_NN
p1415
S'Nu-Oc'
p1416
sVmobile_VBP
p1417
S'bPvlC'
p1418
sVprimarily_RB
p1419
S'rHTTP'
p1420
sVrequired_JJ
p1421
S'xd2Ot'
p1422
sVthought_VBN
p1423
S'edfd2'
p1424
sVmessage_NN
p1425
S'dLzWy'
p1426
sVnonprofit_JJ
p1427
S'w1amK'
p1428
sVfall_VBP
p1429
S'ABhut'
p1430
sVbenefit_NN
p1431
S'DvzSR'
p1432
sVthose_DT
p1433
S'8fji2'
p1434
sVfreedom_NN
p1435
S'qWJ5H'
p1436
sVmind_NN
p1437
S'KEErH'
p1438
sVtowards_NNS
p1439
S'w4aCG'
p1440
sVmobile_JJ
p1441
S'T-DP4'
p1442
sVwant_VBZ
p1443
S'xlm6U'
p1444
sVprofitably_RB
p1445
S'iAsh3'
p1446
sVconsulted_VBN
p1447
S'qNiG-'
p1448
sVseo_NN
p1449
S'uXWhs'
p1450
sVconsiders_VBZ
p1451
S'G_hcA'
p1452
sVdiversity_NN
p1453
S'JxM6u'
p1454
sVmined_VBN
p1455
S'D9Y_5'
p1456
sVany_DT
p1457
S'zoQHb'
p1458
sVbecoming_VBG
p1459
S'uMN7l'
p1460
sVaccess_NN
p1461
S'WdfWQ'
p1462
sVif_IN
p1463
S'2FeQn'
p1464
sVfind_VB
p1465
S'QMKr2'
p1466
sVe_JJ
p1467
S'XFsLT'
p1468
sVconference_NN
p1469
S'tVDok'
p1470
sVmarketeers_NNS
p1471
S'iEFW6'
p1472
sVshimizu_VB
p1473
S'KByJ-'
p1474
sVsem_NN
p1475
S'f9puG'
p1476
sVcampaign_NNS
p1477
S'oNIT1'
p1478
sVtake_VBZ
p1479
S'FiIfg'
p1480
sVperfect_VB
p1481
S'boiMK'
p1482
sVdeficit_NN
p1483
S'1fjNV'
p1484
sVabstract_JJ
p1485
S'm8RKR'
p1486
sVnew_JJ
p1487
S'ow3Ur'
p1488
sVlocalized_JJ
p1489
S'-thR8'
p1490
sVexploiting_VBG
p1491
S'WQoji'
p1492
sVregarded_VBN
p1493
S'xqq-R'
p1494
sVsell_VBZ
p1495
S'P-jVj'
p1496
sVreliable_JJ
p1497
S'm5R8U'
p1498
sVinter_NN
p1499
S'tsuyq'
p1500
sVintended_JJ
p1501
S'rKqbJ'
p1502
sVeffect_NNS
p1503
S'rkokx'
p1504
sVexternal_JJ
p1505
S'ThMPf'
p1506
sVresponsibility_NNS
p1507
S'sxGWW'
p1508
sVqualitative_JJ
p1509
S'ZgpId'
p1510
sVrepresentation_NNS
p1511
S'4GkU-'
p1512
sVdeliver_VB
p1513
S'tP4uq'
p1514
sVour_PRP$
p1515
S't71ul'
p1516
sVwho_WP
p1517
S'zFQyz'
p1518
sVplan_NN
p1519
S'dxbqP'
p1520
sVconcern_NN
p1521
S'YA7aQ'
p1522
sVbelief_VBP
p1523
S'0iwGl'
p1524
sVotherwise_RB
p1525
S'Mamvl'
p1526
sVsecond_JJ
p1527
S'67nL0'
p1528
sVin_IN
p1529
S'KudS1'
p1530
sVfriend_NNS
p1531
S'vLOgU'
p1532
sVtherefore_RB
p1533
S'i8y15'
p1534
sVattempt_VB
p1535
S'erNyl'
p1536
sVcommodity_NN
p1537
S'Hgbld'
p1538
sVafter_IN
p1539
S'DIouB'
p1540
sVlead_VBZ
p1541
S'Ye9Ev'
p1542
sVbrought_VBN
p1543
S'iqshG'
p1544
sVactual_JJ
p1545
S'9zSkY'
p1546
sVtransform_VB
p1547
S'7QC0h'
p1548
sVboth_DT
p1549
S'lIgXn'
p1550
sVimprove_VB
p1551
S'x8TJk'
p1552
sVadditional_JJ
p1553
S'4X0gV'
p1554
sVdissuaded_VBD
p1555
S'UUBRF'
p1556
sVmassachusetts_JJ
p1557
S'j9SZN'
p1558
sVthere_EX
p1559
S'FXJY_'
p1560
sVdefinition_NN
p1561
S'pOoZq'
p1562
sVlikelihood_NN
p1563
S'aKjTM'
p1564
sVfinance_NN
p1565
S'fauv4'
p1566
sVavailable_JJ
p1567
S'o_Rb0'
p1568
sVpass_VBZ
p1569
S'kgjrm'
p1570
sVvendor_NNS
p1571
S'pqpX9'
p1572
sVp_NN
p1573
S'yh3x2'
p1574
sVutility_NN
p1575
S'YR7yn'
p1576
sVprogress_VBZ
p1577
S'QdeJL'
p1578
sVdepends_VBZ
p1579
S'NcMgL'
p1580
sVbombing_VBG
p1581
S'Wjud0'
p1582
sVneed_NN
p1583
S'BtCRX'
p1584
sVmeaning_VBG
p1585
S'gnxGv'
p1586
sVwith_IN
p1587
S'Q8Mfp'
p1588
sVinteractive_JJ
p1589
S'4EeY6'
p1590
sVdiscount_NNS
p1591
S'2wVch'
p1592
sVrationale_NN
p1593
S'sNgq3'
p1594
sVoutdated_JJ
p1595
S'Q8h5C'
p1596
sVi_NN
p1597
S'_wirs'
p1598
sVtrying_VBG
p1599
S'H2Wr0'
p1600
sVintroduced_VBD
p1601
S'TzXtC'
p1602
sVwhether_IN
p1603
S'FSDp0'
p1604
sVprofitable_JJ
p1605
S'OzAJ5'
p1606
sVindustry_NN
p1607
S'G1aV-'
p1608
sVlose_VB
p1609
S'rM_PV'
p1610
sVsatisfy_VB
p1611
S'AlUzw'
p1612
sVterm_NN
p1613
S'zDc30'
p1614
sVfinite_JJ
p1615
S'3l_Vd'
p1616
sVre_VBN
p1617
S'jjm6o'
p1618
sVprint_NN
p1619
S'xd-cd'
p1620
sVconnotation_NN
p1621
S'oG2gf'
p1622
sVcan_MD
p1623
S'lph3a'
p1624
sVrepresenting_VBG
p1625
S'wARyN'
p1626
sVwell_RB
p1627
S'2ElvI'
p1628
sVtheir_PRP$
p1629
S'G-n8F'
p1630
sVrespect_NN
p1631
S'qWvmI'
p1632
sVpredict_VB
p1633
S'2tfX3'
p1634
sVtoday_NN
p1635
S'DpFzP'
p1636
sVparadigm_NN
p1637
S'5B82f'
p1638
sVtechnology_NNS
p1639
S'L5Uei'
p1640
sVcontradict_VB
p1641
S'wtfc4'
p1642
sVcountry_NN
p1643
S'fuY-X'
p1644
sVselling_VBG
p1645
S'_Zc0S'
p1646
sVrenamed_VBN
p1647
S'fM75c'
p1648
sVincluding_VBG
p1649
S'vDM0s'
p1650
sVissue_NN
p1651
S'n5jNu'
p1652
sVsimplest_JJS
p1653
S'BdhiG'
p1654
sVfunctional_JJ
p1655
S'DjpV_'
p1656
sVrefers_NNS
p1657
S'1sOc-'
p1658
sVmove_VBZ
p1659
S'ttc_w'
p1660
sVform_NNS
p1661
S'qBP-w'
p1662
sVoffer_NNS
p1663
S'Ymb6B'
p1664
sVemotion_NNS
p1665
S'U3Ts5'
p1666
sVcommonly_JJ
p1667
S'mdmJu'
p1668
sVoptimization_NN
p1669
S'YX5Gj'
p1670
sVmarketing_NN
p1671
S'X_FrA'
p1672
sVreal_JJ
p1673
S'UMYrT'
p1674
sVrole_NN
p1675
S'l-T35'
p1676
sVaccordingly_RB
p1677
S'DBYUz'
p1678
sVtool_NNS
p1679
S'AeKBg'
p1680
sVconsists_VBZ
p1681
S'EnfQi'
p1682
sVmeasurable_JJ
p1683
S'Dn_AH'
p1684
sVfour_CD
p1685
S'lyGlW'
p1686
sVdistinction_NN
p1687
S'DIGoP'
p1688
sVconverting_VBG
p1689
S'8o8IJ'
p1690
sVwish_VBP
p1691
S'jxqHe'
p1692
sVsecondary_JJ
p1693
S'T15gJ'
p1694
sVconcern_NNS
p1695
S'ucs60'
p1696
sVtool_NN
p1697
S'F3rp1'
p1698
sVcoined_VBN
p1699
S'asofX'
p1700
sVfocus_NNS
p1701
S'0UTsa'
p1702
sVconverge_VBP
p1703
S'q0c9k'
p1704
sVfood_NNS
p1705
S'nXe6O'
p1706
sVnissan_JJ
p1707
S'LFVdn'
p1708
sVspend_VB
p1709
S'-eQT7'
p1710
sVlaw_NNS
p1711
S'inSjk'
p1712
sVconflict_NNS
p1713
S'9sPHj'
p1714
sVreason_NN
p1715
S'C_iKZ'
p1716
sVway_NNS
p1717
S'vhLCd'
p1718
sVinept_JJ
p1719
S'PHmmL'
p1720
sVdenote_VBP
p1721
S'SuPtf'
p1722
sVstructure_NN
p1723
S'5FIu2'
p1724
sVtrouble_NN
p1725
S'IG1R_'
p1726
sVwe_PRP
p1727
S'noGD2'
p1728
sVrelates_VBZ
p1729
S'or6Wi'
p1730
sVexperiencing_VBG
p1731
S'O6ipv'
p1732
sVcontribution_NNS
p1733
S'tIDKq'
p1734
sVis_VBZ
p1735
S'_UNhY'
p1736
sVsplit_VB
p1737
S'YrI0j'
p1738
sVpublic_JJ
p1739
S'-ljRP'
p1740
sVstrategy_NNS
p1741
S'w6hTp'
p1742
sVdriven_VBN
p1743
S'X3r0Q'
p1744
sVget_VB
p1745
S'GMvvP'
p1746
sVuntil_IN
p1747
S'-JIGM'
p1748
sVderived_VBN
p1749
S'QnXYk'
p1750
sVt_NN
p1751
S'Yr6IS'
p1752
sVphone_NNS
p1753
S'sar4G'
p1754
sVcaveat_NNS
p1755
S'K1VLX'
p1756
sVsee_VB
p1757
S'LCyau'
p1758
sVpursued_VBN
p1759
S'RLot0'
p1760
sVinstallation_NN
p1761
S'TRfc5'
p1762
sVunique_JJ
p1763
S'0JpAW'
p1764
sVcompetition_NN
p1765
S'T3q38'
p1766
sVuse_VBP
p1767
S'xm_Oj'
p1768
sVbreakthrough_NNS
p1769
S'IeJar'
p1770
sVknown_VBN
p1771
S'v7DN8'
p1772
sVstrategic_JJ
p1773
S'GSYpR'
p1774
sVamongst_NN
p1775
S'65IwV'
p1776
sVfocus_VB
p1777
S'qhexl'
p1778
sVcommunicate_VB
p1779
S'b19f3'
p1780
sVutilize_VB
p1781
S'3ftHe'
p1782
sVmultiplicity_NN
p1783
S'o7wqV'
p1784
sVhigh_JJ
p1785
S'9cdSj'
p1786
sVcarrying_VBG
p1787
S'EMP99'
p1788
sVsquared_JJ
p1789
S'8o9cB'
p1790
sVyou_PRP
p1791
S'mQHvl'
p1792
sVimage_NNS
p1793
S'FiyQo'
p1794
sVoccurring_VBG
p1795
S'p4StL'
p1796
sVapproach_NNS
p1797
S'g0gZq'
p1798
sVbehavioral_JJ
p1799
S'K0sv6'
p1800
sVwaiter_NN
p1801
S'kd77J'
p1802
sVstart_VB
p1803
S'ajWPr'
p1804
sVradio_NN
p1805
S'LQJ1a'
p1806
sVsecuring_VBG
p1807
S'jU3p2'
p1808
sVadvertising_NN
p1809
S'jJ4C9'
p1810
sVaction_NN
p1811
S'gzYeS'
p1812
sVcash_NN
p1813
S'C50F5'
p1814
sVtechnique_NNS
p1815
S'CnKrn'
p1816
sVrooted_VBN
p1817
S'reE-p'
p1818
sVsmallest_JJS
p1819
S'Lh_tr'
p1820
sVunrelated_JJ
p1821
S'JIR9g'
p1822
sVsoftware_NN
p1823
S'HGCOV'
p1824
sVsiva_JJ
p1825
S'd3pTN'
p1826
sVallocation_NN
p1827
S'gXAtY'
p1828
sVdelivered_VBN
p1829
S'40jcc'
p1830
sVpizza_NN
p1831
S'DRSZq'
p1832
sVsupport_VB
p1833
S'28naQ'
p1834
sVwhen_WRB
p1835
S'34FfP'
p1836
sVorganisation_NN
p1837
S'9HCGZ'
p1838
sVaddition_NN
p1839
S'39CUq'
p1840
sVproperly_RB
p1841
S'rUhsN'
p1842
sVexpected_VBN
p1843
S'Pe-Dg'
p1844
sVproduction_NN
p1845
S'nTAVm'
p1846
sVcomprehensive_JJ
p1847
S'ypLh9'
p1848
sVvaluable_JJ
p1849
S'aCZD8'
p1850
sVunconventional_JJ
p1851
S'qgz4i'
p1852
sVaspect_NNS
p1853
S't4eEb'
p1854
sVterm_NNS
p1855
S't1LpY'
p1856
sVsystem_NNS
p1857
S'e3CNj'
p1858
sVtimely_JJ
p1859
S'eJmRT'
p1860
sVinclude_NN
p1861
S'DjcmK'
p1862
sVgoing_VBG
p1863
S'FdJmD'
p1864
sVcom_NN
p1865
S'vOVZK'
p1866
sVdelivers_NNS
p1867
S'cgr89'
p1868
sVrequires_VBZ
p1869
S'WX7u3'
p1870
sVinstinct_NN
p1871
S'pqpxk'
p1872
sVculture_NN
p1873
S'zMV59'
p1874
sVpreference_NN
p1875
S'jo3e0'
p1876
sVdriving_VBG
p1877
S'ryegX'
p1878
sVformal_JJ
p1879
S'A1Rmx'
p1880
sVcompetitive_JJ
p1881
S'l8GBF'
p1882
sVtaste_NNS
p1883
S'CShMm'
p1884
sVchannel_NN
p1885
S'ty_tH'
p1886
sVsuccessful_JJ
p1887
S'ZRwuq'
p1888
sVnon_NN
p1889
S'9ueRs'
p1890
sVstreet_NN
p1891
S'aDomo'
p1892
sVextensive_JJ
p1893
S'mae_7'
p1894
sVexperian_JJ
p1895
S'zU7yA'
p1896
sVpersonality_NN
p1897
S'E0iRS'
p1898
sVperishability_NN
p1899
S'66ulR'
p1900
sVdetermining_VBG
p1901
S'mmPAH'
p1902
sVevaluated_JJ
p1903
S'kLTmt'
p1904
sVmental_JJ
p1905
S'Wn5qH'
p1906
sVrival_VB
p1907
S'1lMDh'
p1908
sVpace_NN
p1909
S'EnJjx'
p1910
sVlast_JJ
p1911
S'BzJEw'
p1912
sVmobile_VB
p1913
S'Pw56W'
p1914
sVmodelling_NN
p1915
S'C0Jw1'
p1916
sVincreasing_VBG
p1917
S'PvuE8'
p1918
sVaccurate_NN
p1919
S'iPtjT'
p1920
sVspeech_NN
p1921
S'4J1Fb'
p1922
sVearly_JJ
p1923
S'OjttH'
p1924
sVidentifying_VBG
p1925
S'7UacX'
p1926
sVcar_NN
p1927
S'4pmjY'
p1928
sVlifestyle_NN
p1929
S'N0EDM'
p1930
sVimpact_NNS
p1931
S'm-ElO'
p1932
sValways_RB
p1933
S'AOvlg'
p1934
sVnot_RB
p1935
S'aoNnY'
p1936
sVnike_JJ
p1937
S'SynPq'
p1938
sVemergence_NN
p1939
S'9lB7H'
p1940
sVdetermine_VB
p1941
S'yoYh4'
p1942
sVdone_VBN
p1943
S'3P92v'
p1944
sVtechnologically_RB
p1945
S'G3zym'
p1946
sVwinner_NN
p1947
S'Ma5jh'
p1948
sVfrequency_VBP
p1949
S'Wgys0'
p1950
sVwishing_VBG
p1951
S'MhmF0'
p1952
sVbuy_VB
p1953
S'yagvJ'
p1954
sVprovide_VB
p1955
S'0FwvC'
p1956
sVdeveloped_VBN
p1957
S'Bfslu'
p1958
sVagainst_IN
p1959
S'bTfpj'
p1960
sVdistribution_NNS
p1961
S'0pCcx'
p1962
sVdisruption_NN
p1963
S'mZZGl'
p1964
sVcore_NN
p1965
S'1vgK7'
p1966
sVpopular_JJ
p1967
S'EKIjm'
p1968
sVoperates_VBZ
p1969
S'qqP3l'
p1970
sVcontrollable_JJ
p1971
S'OAfPz'
p1972
sVtraditional_JJ
p1973
S'DSD4k'
p1974
sVchevrolet_NN
p1975
S'Xugml'
p1976
sVoffer_VB
p1977
S'ok7se'
p1978
sVgetting_VBG
p1979
S'1xYc3'
p1980
sVdown_RP
p1981
S'JOCHv'
p1982
sVfollowed_VBN
p1983
S'vaWOW'
p1984
sVbusiness_NNS
p1985
S'qXz16'
p1986
sVselect_VB
p1987
S'83GkJ'
p1988
sVshould_MD
p1989
S'-ViWE'
p1990
sVfrequency_NN
p1991
S'5UMfc'
p1992
sVopportunity_NNS
p1993
S'qhdMi'
p1994
sVa_RB
p1995
S'EJ810'
p1996
sVgenerally_RB
p1997
S'Ezm5w'
p1998
sVservice_NNS
p1999
S'mV5rK'
p2000
sVindividual_NNS
p2001
S'19w1t'
p2002
sVdepartmental_JJ
p2003
S'pzdc0'
p2004
sVincludes_VBZ
p2005
S'TCl8n'
p2006
sVcognizant_NN
p2007
S'3cqlD'
p2008
sVconsidered_VBN
p2009
S'T_gDZ'
p2010
sVimpulse_JJ
p2011
S'3do6e'
p2012
sVvery_RB
p2013
S'oIWrG'
p2014
sVdrawn_VBP
p2015
S'1kyFk'
p2016
sVpurchased_VBN
p2017
S'2Libu'
p2018
sVupon_IN
p2019
S'jsRwT'
p2020
sVuse_VB
p2021
S'0x2nG'
p2022
sVselecting_VBG
p2023
S'XAuqc'
p2024
sVoffering_NNS
p2025
S'lXjSH'
p2026
sVpsychology_NN
p2027
S'DKXoI'
p2028
sVbehavior_JJ
p2029
S'EaTku'
p2030
sVnetwork_NNS
p2031
S'k-5sr'
p2032
sVartificial_JJ
p2033
S'uqLUv'
p2034
sVspite_NN
p2035
S'p4AF5'
p2036
sVdivision_NN
p2037
S'LqOyD'
p2038
sVwithout_IN
p2039
S'7M9Vn'
p2040
sVallows_VBZ
p2041
S'LRQyj'
p2042
sVcountry_NNS
p2043
S'Cvzxk'
p2044
sVinstitution_NNS
p2045
S'mrjw9'
p2046
sVdomain_NNS
p2047
S'sDyWg'
p2048
sVglobal_JJ
p2049
S'SAeJp'
p2050
sVmarketplace_NN
p2051
S'Nb8eW'
p2052
sVenvironment_NN
p2053
S'ivsns'
p2054
sVexchange_NN
p2055
S'AfPPT'
p2056
sVsociety_NN
p2057
S'HT2QP'
p2058
sVbeen_VBN
p2059
S'7Rhxq'
p2060
sVamount_NN
p2061
S'aptTA'
p2062
sVmanager_NNS
p2063
S'VinVX'
p2064
sVdemographic_JJ
p2065
S'glzFk'
p2066
sVbecome_VB
p2067
S'vcaoA'
p2068
sVcontemporary_JJ
p2069
S'XhnYW'
p2070
sVoperated_VBD
p2071
S'kOot8'
p2072
sVcollect_JJ
p2073
S'Dvj9p'
p2074
sVmicrosystems_NNS
p2075
S'OEQYs'
p2076
sVphase_NNS
p2077
S'd4xqY'
p2078
sVaffect_VBZ
p2079
S'zSP8i'
p2080
sVaffect_VBP
p2081
S'CePOk'
p2082
sVthere_RB
p2083
S'B5o5x'
p2084
sVchoosing_VBG
p2085
S'vMtka'
p2086
sVaudience_NN
p2087
S'2C-Ir'
p2088
sVmarket_NNS
p2089
S'4cwV5'
p2090
sVmutually_RB
p2091
S'xEP-7'
p2092
sVtest_NN
p2093
S'2Y3Hx'
p2094
sVincreased_VBN
p2095
S'w2CH1'
p2096
sVvalid_JJ
p2097
S'hsooh'
p2098
sVcontextual_JJ
p2099
S'adrSC'
p2100
sVactivity_NN
p2101
S'Sc7mo'
p2102
sVgenerate_VB
p2103
S'0u6Nj'
p2104
sVbeginning_NN
p2105
S'v0dTk'
p2106
sVstate_NNS
p2107
S'025lQ'
p2108
sVwhere_WRB
p2109
S'I_Z4q'
p2110
sVan_DT
p2111
S'8hNBz'
p2112
sVbillboard_NN
p2113
S'JQ0tH'
p2114
sVmaintain_VB
p2115
S'LSHLW'
p2116
sVpurpose_NN
p2117
S'rN2k2'
p2118
sVdeemed_VBN
p2119
S'bPyhm'
p2120
sVconsequently_RB
p2121
S'kWuLX'
p2122
sVcharacterized_VBN
p2123
S'6sXin'
p2124
sVtactic_JJ
p2125
S'0lBof'
p2126
sVborden_NN
p2127
S'l2MyO'
p2128
sVmailing_NN
p2129
S'cscPw'
p2130
sVrather_RB
p2131
S'd0KJY'
p2132
sVinterdisciplinary_JJ
p2133
S'12ulc'
p2134
sVbroken_VBN
p2135
S'xRqB9'
p2136
sVthey_PRP
p2137
S'zLPm1'
p2138
sVpositioning_VBG
p2139
S'h24Xd'
p2140
sVsupplier_NNS
p2141
S'8YaKv'
p2142
sVgathered_VBN
p2143
S'nG2g6'
p2144
sVsearch_JJ
p2145
S'oG99c'
p2146
sVstudied_VBN
p2147
S'iWUMB'
p2148
sVconducted_VBN
p2149
S'N5kR-'
p2150
sVspanning_VBG
p2151
S'1S3KN'
p2152
sVputting_VBG
p2153
S'1Y3Tl'
p2154
sVtechnology_NN
p2155
S'2fbo9'
p2156
sVconducted_VBD
p2157
S'Jn0Bd'
p2158
sVopposite_NN
p2159
S'XkkZD'
p2160
sVprice_NN
p2161
S'TqL8p'
p2162
sVadult_NNS
p2163
S'90mwY'
p2164
sVconsumer_NN
p2165
S'Wzp06'
p2166
sVcrunchy_NN
p2167
S'sMNjq'
p2168
sVset_NN
p2169
S'V_89z'
p2170
sVs_NN
p2171
S'Z7nfh'
p2172
sVtitle_NNS
p2173
S'QvD1j'
p2174
sVfurthermore_RB
p2175
S'goycZ'
p2176
sVprime_JJ
p2177
S'kc030'
p2178
sVticket_NN
p2179
S'vez4g'
p2180
sVexample_NN
p2181
S'rusrW'
p2182
sVenvironmental_JJ
p2183
S'gKxwY'
p2184
sVseveral_JJ
p2185
S'LvMgF'
p2186
sVconvey_VB
p2187
S'h-EcN'
p2188
sVmission_NN
p2189
S'nTXZ2'
p2190
sVintelligent_JJ
p2191
S'vAW4y'
p2192
sVinvolved_VBN
p2193
S'Hbp0S'
p2194
sVable_JJ
p2195
S'LtZVm'
p2196
sVignore_VB
p2197
S'AqJNw'
p2198
sVcertain_JJ
p2199
S'KHdSI'
p2200
sVcontributing_VBG
p2201
S'W5EON'
p2202
sVproduct_NNS
p2203
S'pMkVn'
p2204
sVpolitical_JJ
p2205
S'gCZb9'
p2206
sVmarketed_VBN
p2207
S'j0OBf'
p2208
sVbecause_IN
p2209
S'UsL6S'
p2210
sVeven_RB
p2211
S'lfONy'
p2212
sVfirm_NN
p2213
S'kkBUG'
p2214
sVhappen_VB
p2215
S'fVS4u'
p2216
sVplace_NN
p2217
S'KW4WS'
p2218
sVbe_VB
p2219
S'aZWrp'
p2220
sVfeature_NNS
p2221
S'n190h'
p2222
sVmore_JJR
p2223
S'bNm1a'
p2224
sVprocess_NN
p2225
S'KXVO5'
p2226
sVprominent_JJ
p2227
S'tmii0'
p2228
sVdead_JJ
p2229
S'EWFB9'
p2230
sVevent_NNS
p2231
S'IkSvH'
p2232
sVpromotional_JJ
p2233
S'MLzcd'
p2234
sVdoing_VBG
p2235
S'Fx848'
p2236
sVmade_VBN
p2237
S'mzOft'
p2238
sVfriendship_NNS
p2239
S'ijATj'
p2240
sVclient_NNS
p2241
S'RafZE'
p2242
sVconvenience_NN
p2243
S'PGQKd'
p2244
sVoutlet_NNS
p2245
S'uFN5K'
p2246
sVrepeat_NN
p2247
S'_XuIR'
p2248
sVextra_JJ
p2249
S'BeFew'
p2250
sVshorter_JJR
p2251
S'BTmPE'
p2252
sVproblematic_JJ
p2253
S'KtgTe'
p2254
sVclosely_RB
p2255
S'8ITh9'
p2256
sVinherently_RB
p2257
S'BQH1F'
p2258
sVrelated_JJ
p2259
S'RF101'
p2260
sVpromotion_NN
p2261
S'D5ADg'
p2262
sVbuyer_NN
p2263
S'JcrpF'
p2264
sVsimultaneously_RB
p2265
S'-hoEZ'
p2266
sVrepresents_VBZ
p2267
S'WNXhy'
p2268
sVfunctionality_NN
p2269
S'wwLku'
p2270
sVplaying_VBG
p2271
S'zvjob'
p2272
sVsearch_NNS
p2273
S'1uNKI'
p2274
sVlinguistics_NNS
p2275
S'uSZ4T'
p2276
sVtv_NN
p2277
S'pb_vn'
p2278
sVgeographic_JJ
p2279
S'kzJo2'
p2280
sVe_NN
p2281
S'XwhoS'
p2282
sVfund_NNS
p2283
S'aAPl4'
p2284
sVdemand_NN
p2285
S'479C6'
p2286
sVbidding_NN
p2287
S'B2j1A'
p2288
sVinforming_VBG
p2289
S'voXq0'
p2290
sVmethod_NNS
p2291
S'HASZ1'
p2292
sVindividual_JJ
p2293
S'N5njs'
p2294
sVappraisal_NN
p2295
S'Qwxji'
p2296
sVpsychological_JJ
p2297
S'rk9RJ'
p2298
sVbetter_JJR
p2299
S'jK4zZ'
p2300
sVorientation_NN
p2301
S'TVXq0'
p2302
sVlevel_NNS
p2303
S'u5FaI'
p2304
sVshape_NN
p2305
S'mTnE0'
p2306
sVgraffiti_NN
p2307
S'XZ1Au'
p2308
sVcompass_NN
p2309
S'RW9Be'
p2310
sVdistinct_JJ
p2311
S'LgyKa'
p2312
sVmarketer_NN
p2313
S'oBSB2'
p2314
sVexperimental_JJ
p2315
S'opPjo'
p2316
sVposition_NN
p2317
S'DhNQf'
p2318
sVinternet_NN
p2319
S'Eg7_c'
p2320
sVfamily_NN
p2321
S's6WCx'
p2322
sVevidently_RB
p2323
S'HwiT3'
p2324
sVpart_NN
p2325
S'jW1sL'
p2326
sVfollowing_JJ
p2327
S'PwgKN'
p2328
sVincrease_VB
p2329
S'0lE0f'
p2330
sVit_PRP
p2331
S'9YHcF'
p2332
sVtask_NN
p2333
S'Vy95p'
p2334
sVcharacteristic_NNS
p2335
S'h6JTm'
p2336
sVfurther_RBR
p2337
S'Vn4kw'
p2338
sVlarger_JJR
p2339
S'QoUQZ'
p2340
sValtered_VBN
p2341
S'a1_ub'
p2342
sVclub_NNS
p2343
S'bJg_X'
p2344
sVexchanging_VBG
p2345
S'tBYAD'
p2346
sVneed_NNS
p2347
S'R_rk1'
p2348
sValternative_NN
p2349
S'dqfsx'
p2350
sVothers_NNS
p2351
S'i7lQx'
p2352
sVs_VBD
p2353
S'AS6Q0'
p2354
sVchosen_VBN
p2355
S'pBleg'
p2356
sVwhile_IN
p2357
S'z5epX'
p2358
sVs_VBZ
p2359
S'oBxdB'
p2360
sVoffering_NN
p2361
S'ayJiv'
p2362
sVshared_VBD
p2363
S'aDQkB'
p2364
sVincorporated_VBN
p2365
S'F3TYP'
p2366
sVs_VBP
p2367
S'r5spC'
p2368
sVwhy_WRB
p2369
S'KIGvl'
p2370
sVprimary_JJ
p2371
S'6FZKM'
p2372
sVat_IN
p2373
S'BAlTi'
p2374
sVdo_VBP
p2375
S'Eb_u_'
p2376
sVlanding_JJ
p2377
S'1bgW6'
p2378
sVlisted_VBN
p2379
S'cu1EB'
p2380
sVtailor_VB
p2381
S'G4FsS'
p2382
sVonline_NN
p2383
S'ReyEn'
p2384
sVfollows_VBZ
p2385
S'IYDNQ'
p2386
sVp_JJ
p2387
S'h1Thd'
p2388
sVobjective_NN
p2389
S'0eGis'
p2390
sVparaphrase_NN
p2391
S'SxTP2'
p2392
sVcenter_NN
p2393
S'Liis2'
p2394
sVchristensen_NNS
p2395
S'i3U52'
p2396
sVsuit_VB
p2397
S'vg5TH'
p2398
sVhabit_NNS
p2399
S'oFI4c'
p2400
sVthe_DT
p2401
S'9ktcZ'
p2402
sVsupporting_VBG
p2403
S'g2qyI'
p2404
sVbuying_NN
p2405
S'RYk54'
p2406
sVlevel_NN
p2407
S'fCQkp'
p2408
sVadditionally_RB
p2409
S'C-RPB'
p2410
sVsegmentation_NN
p2411
S'l8-vY'
p2412
sVphone_NN
p2413
S'zp3QR'
p2414
sVetc_NN
p2415
S'G9B1-'
p2416
sVyear_NNS
p2417
S'5HOtF'
p2418
sVinsight_NNS
p2419
S'71BbR'
p2420
sVascertaining_VBG
p2421
S'cBfvY'
p2422
sVdelivering_VBG
p2423
S'29EnJ'
p2424
sVyour_PRP$
p2425
S'2qQ7r'
p2426
sVsome_DT
p2427
S'zs6zQ'
p2428
sVattitude_VB
p2429
S'SqDpn'
p2430
sVadvertiser_NNS
p2431
S'CkNSZ'
p2432
sVeffort_NN
p2433
S'ewGT2'
p2434
sVdisseminating_VBG
p2435
S'sNXHo'
p2436
sVestablish_VB
p2437
S'OMf65'
p2438
sVall_PDT
p2439
S'EeiiU'
p2440
sVphysical_JJ
p2441
S'rww3p'
p2442
sVdetail_NNS
p2443
S'Tnaj5'
p2444
sVstrategy_NN
p2445
S'Z8ZOM'
p2446
sVdata_NNS
p2447
S'ovxUo'
p2448
sVdisruptive_JJ
p2449
S'KUaX6'
p2450
sVchange_VBP
p2451
S'wlmMJ'
p2452
sVget_VBZ
p2453
S'au1MG'
p2454
sVmember_NNS
p2455
S'2U4Hn'
p2456
sVmode_NN
p2457
S'7v61y'
p2458
sVimplemented_VBN
p2459
S'ZFsQd'
p2460
sVthing_NNS
p2461
S'vrW98'
p2462
sVselects_VBZ
p2463
S'gbfrA'
p2464
sVdriven_JJ
p2465
S'UV92X'
p2466
sVheavily_RB
p2467
S'wVpnk'
p2468
sVintangible_JJ
p2469
S'o7961'
p2470
sVdownloaded_VBD
p2471
S'X3kix'
p2472
sVservice_NN
p2473
S'pd1iS'
p2474
sVconstantly_RB
p2475
S'PmUSY'
p2476
sVlessen_VB
p2477
S'g0kov'
p2478
sVride_NN
p2479
S'Cp6QB'
p2480
sVsale_NNS
p2481
S'Ohfpm'
p2482
sVresource_NNS
p2483
S'bgO7t'
p2484
sVpoisson_VBP
p2485
S'e53YR'
p2486
sVor_CC
p2487
S'nNtME'
p2488
sVwa_VBD
p2489
S'ujLNy'
p2490
sVpart_NNS
p2491
S'VXE42'
p2492
sValso_RB
p2493
S'vW0iQ'
p2494
sVdigital_JJ
p2495
S'UGAC9'
p2496
sVallocate_VB
p2497
S'fOYb_'
p2498
sVeconomist_NN
p2499
S'HpsDL'
p2500
sVd_NN
p2501
S'sBc75'
p2502
sVstaying_VBG
p2503
S'mUKcE'
p2504
sVmass_NN
p2505
S'n8olG'
p2506
sVmean_VB
p2507
S'sZ1zA'
p2508
sVdelivering_NN
p2509
S'lewlM'
p2510
sVinduce_VB
p2511
S'_EF4r'
p2512
sVpsychophysiological_JJ
p2513
S'n_ITL'
p2514
sVsurvives_NNS
p2515
S'Qu__w'
p2516
sVletter_NN
p2517
S'SipN4'
p2518
sVstarting_NN
p2519
S'oeGty'
p2520
sVmaterial_JJ
p2521
S'ZR0tE'
p2522
sVcustomer_NNS
p2523
S'JDUlB'
p2524
sVabout_IN
p2525
S'i2z1P'
p2526
sVrespectively_RB
p2527
S'xfvek'
p2528
sVmust_MD
p2529
S'0SXFi'
p2530
sVtechnical_JJ
p2531
S'ehufI'
p2532
sVlocal_JJ
p2533
S'dABrz'
p2534
sVreactive_JJ
p2535
S'Y6qWW'
p2536
sVmanufacture_VB
p2537
S'xe6iB'
p2538
sVbasically_RB
p2539
S'jUdTw'
p2540
sVsplit_VBN
p2541
S'BawLE'
p2542
sVsystem_NN
p2543
S'bSxCt'
p2544
sVmovement_NN
p2545
S'C3RNe'
p2546
sVjerome_NN
p2547
S'OwC2l'
p2548
sVbetween_IN
p2549
S'sRmea'
p2550
sVoften_RB
p2551
S'gifFp'
p2552
sVeffectively_RB
p2553
S'PJxsU'
p2554
sVcycle_NN
p2555
S'UUSoh'
p2556
sVvia_IN
p2557
S'9lZmM'
p2558
sVsticker_NN
p2559
S'2ZmFt'
p2560
sVhealth_NN
p2561
S'Iks9j'
p2562
sVdiversified_JJ
p2563
S'raqA-'
p2564
sVinseparable_JJ
p2565
S'sKnQw'
p2566
sVprofessor_NN
p2567
S'PqPJZ'
p2568
sVmethod_NN
p2569
S'XFmph'
p2570
sVresponse_NN
p2571
S'IK7Ge'
p2572
sVstock_NN
p2573
S'zEVpY'
p2574
sVdeal_NNS
p2575
S'PCnms'
p2576
sVassessed_VBN
p2577
S'7lQeC'
p2578
sVthen_RB
p2579
S'j3ozY'
p2580
sVperson_NN
p2581
S'-R2jd'
p2582
sVparticular_JJ
p2583
S'1LIZu'
p2584
sVmarketer_NNS
p2585
S'8ZtMC'
p2586
sVfactor_NNS
p2587
S'0UU6F'
p2588
sVup_RP
p2589
S'peX6J'
p2590
sVsubset_NN
p2591
S'20BjK'
p2592
sVmode_NNS
p2593
S'KltDG'
p2594
sVaiding_VBG
p2595
S'j5BkG'
p2596
sVperson_NNS
p2597
S'Eutwz'
p2598
sVmap_NNS
p2599
S'1rMx0'
p2600
sVpostcard_NN
p2601
S'Ev5n3'
p2602
sVmentioned_VBN
p2603
S'Q_C4S'
p2604
sVhowever_RB
p2605
S'kSr0B'
p2606
sVaram_NN
p2607
S's6W9d'
p2608
sVappropriate_JJ
p2609
S'EPhck'
p2610
sVdynamic_NNS
p2611
S'RrlcA'
p2612
sVchannel_NNS
p2613
S's7Gtr'
p2614
sVserved_VBN
p2615
S'WRFSQ'
p2616
sVlook_VBZ
p2617
S'n_STz'
p2618
sVshare_NN
p2619
S't-0Jq'
p2620
sVimago_VBZ
p2621
S'4xtuM'
p2622
sVreaching_VBG
p2623
S'0HHWU'
p2624
sVgeneral_JJ
p2625
S'u63SZ'
p2626
sVeconomic_JJ
p2627
S'-89gu'
p2628
sVbelow_NN
p2629
S'nioya'
p2630
sVchange_VB
p2631
S'n6ui_'
p2632
sVquantified_VBN
p2633
S'xilDz'
p2634
sVsimilar_JJ
p2635
S'4m7mA'
p2636
sVsold_VBN
p2637
S'cuQzb'
p2638
sVbroad_JJ
p2639
S'ij6L_'
p2640
sVmodern_JJ
p2641
S'BKGba'
p2642
sVprovides_VBZ
p2643
S'8u5Jr'
p2644
sVadopt_VB
p2645
S'gRnm3'
p2646
sVplanning_NN
p2647
S'mbSPj'
p2648
sVsiva_NN
p2649
S'62vgH'
p2650
sVmanufacturing_NN
p2651
S'b6IBA'
p2652
sVproposed_VBN
p2653
S'6OzfQ'
p2654
sVbenchmark_NNS
p2655
S'kKlkc'
p2656
sVbranch_NN
p2657
S'cqt0S'
p2658
sVconvert_VB
p2659
S'FdopC'
p2660
sVgathering_NN
p2661
S'f4jkI'
p2662
sVdecline_NN
p2663
S'ejta4'
p2664
sVpurchase_NN
p2665
S'KylYw'
p2666
sVundermine_VB
p2667
S'wT9Pt'
p2668
sVclassify_VB
p2669
S'rEQi6'
p2670
sVcapital_NN
p2671
S'cjPh9'
p2672
sVsuggest_VBP
p2673
S'nqW1B'
p2674
sVmake_VBZ
p2675
S'BaLyp'
p2676
sVtry_VBP
p2677
S'j9tIj'
p2678
sVintegrated_VBN
p2679
S'SJQ7f'
p2680
sVservicing_VBG
p2681
S'-NETY'
p2682
sVtag_NN
p2683
S'GnffK'
p2684
sVrefer_VB
p2685
S'k2hA1'
p2686
sVaim_VBZ
p2687
S'mrcjP'
p2688
sVtraditionally_RB
p2689
S'MVV-F'
p2690
sVgroup_NN
p2691
S'ECnaw'
p2692
sVinnovation_NN
p2693
S'VS4lD'
p2694
sVmanagement_NN
p2695
S'EmWjX'
p2696
sVsingle_JJ
p2697
S'yU3Y9'
p2698
sVsure_JJ
p2699
S'FwUnb'
p2700
sVone_NN
p2701
S'TGm_U'
p2702
sVfeedback_NN
p2703
S'qOkm7'
p2704
sVtypically_RB
p2705
S'G0i9K'
p2706
sVpartner_NNS
p2707
S'ADFta'
p2708
sVwant_VBP
p2709
S'NVoZW'
p2710
sVnut_NN
p2711
S'OtxBW'
p2712
sVdynamic_JJ
p2713
S'wi8RW'
p2714
sVprogression_NN
p2715
S'BjY4m'
p2716
sVrelated_VBN
p2717
S'HSgVM'
p2718
sVha_VBZ
p2719
S'iuN8l'
p2720
sVintended_VBN
p2721
S'zYTtz'
p2722
sVtrend_NNS
p2723
S'MTt7l'
p2724
sVlauterborn_JJ
p2725
S'Ja-qY'
p2726
sVvital_JJ
p2727
S'Al96o'
p2728
sVfunding_NN
p2729
S'8agvg'
p2730
sVwilling_JJ
p2731
S'jU7eT'
p2732
sVweigh_VB
p2733
S'bcu-_'
p2734
sVstart_NN
p2735
S'bNZhr'
p2736
sVford_NN
p2737
S'riQ8G'
p2738
sVnon_JJ
p2739
S'M9J-O'
p2740
sVsimulation_NN
p2741
S'DYdsj'
p2742
sVfuture_JJ
p2743
S'WoHuz'
p2744
sVcontract_NNS
p2745
S'ABes7'
p2746
sVgovernmental_JJ
p2747
S'r7ADD'
p2748
sVincome_NN
p2749
S'nxQVV'
p2750
sVtransfer_NNS
p2751
S'fWhYw'
p2752
sVspecific_NN
p2753
S'ZdI_x'
p2754
sVlifestyle_NNS
p2755
S'KkiOH'
p2756
sVmeaning_NN
p2757
S'DKF7M'
p2758
sVindustrial_JJ
p2759
S'fuKBX'
p2760
sVco_NN
p2761
S'WVsAY'
p2762
sVmarketing_VBG
p2763
S'9xwv5'
p2764
sVdemand_NNS
p2765
S'F_YXz'
p2766
sVwell_NN
p2767
S'Hy0TU'
p2768
sVeither_CC
p2769
S'rraGE'
p2770
sVwide_JJ
p2771
S'xxO-v'
p2772
sVpair_NN
p2773
S'Gn_Di'
p2774
sVinstitution_NN
p2775
S'DMYAD'
p2776
sVsupport_NN
p2777
S'1c0PO'
p2778
sVsolution_NN
p2779
S'm_WYu'
p2780
sVlook_VB
p2781
S'4yCIE'
p2782
sVsometimes_RB
p2783
S'-lvd6'
p2784
sVmost_RBS
p2785
S'Gyg2c'
p2786
sVno_DT
p2787
S'N4uko'
p2788
sVad_NNS
p2789
S'SSPrA'
p2790
sVoccur_VB
p2791
S'5xwIM'
p2792
sVcorrelation_NNS
p2793
S'Lgc1-'
p2794
sVmusic_NN
p2795
S'2aulW'
p2796
sVfocus_VBZ
p2797
S'L-znG'
p2798
sVfinding_NNS
p2799
S'DIFru'
p2800
sVtop_JJ
p2801
S'zC3A6'
p2802
sVlonger_JJR
p2803
S'zG7-H'
p2804
sVobtain_VB
p2805
S'g1Tqt'
p2806
sVinterpreting_VBG
p2807
S'oQdKJ'
p2808
sVidentify_VB
p2809
S'tHmiS'
p2810
sVdaily_JJ
p2811
S'VoLlQ'
p2812
sVbuy_VBZ
p2813
S'GAXoX'
p2814
sVrecognition_NN
p2815
S'Q27KC'
p2816
sVsee_VBP
p2817
S'lRsz6'
p2818
sVnike_NN
p2819
S'lEp5r'
p2820
sVmarket_NN
p2821
S'kGkQz'
p2822
sVevaluation_NN
p2823
S'Rdizh'
p2824
sVstage_NN
p2825
S'Sc8bd'
p2826
sVemotional_JJ
p2827
S'IlH2f'
p2828
sVdescribe_VB
p2829
S'qdAsN'
p2830
sVmilestone_NNS
p2831
S'-Xu3v'
p2832
sVexecuting_VBG
p2833
S'f_C82'
p2834
sVa_DT
p2835
S't1VZe'
p2836
sVwhole_JJ
p2837
S'o2Pvk'
p2838
sVachieve_VBP
p2839
S'EE1aR'
p2840
sVadd_VB
p2841
S'zRpJo'
p2842
sVmicro_NN
p2843
S'UeJ5g'
p2844
sVthinker_NNS
p2845
S'Oh8_r'
p2846
sVpredictive_JJ
p2847
S'o82O6'
p2848
sVproblem_NN
p2849
S'nyzMw'
p2850
sVopposed_VBN
p2851
S'PasPr'
p2852
sVreceives_VBZ
p2853
S'vEgoy'
p2854
sVpublisher_NN
p2855
S'hK59p'
p2856
sVobject_NN
p2857
S'kA9nV'
p2858
sVbuild_JJ
p2859
S'auW1m'
p2860
sVconvenient_JJ
p2861
S'4f5aD'
p2862
sVrely_VB
p2863
S'bUWZz'
p2864
sVverbal_JJ
p2865
S'KtNWx'
p2866
sVarea_NN
p2867
S'fxCRs'
p2868
sVmanager_NN
p2869
S'tJPjQ'
p2870
sVcompetitor_NN
p2871
S'K9ics'
p2872
sVnote_NN
p2873
S'IXv37'
p2874
sVsubsequently_RB
p2875
S'8UuXQ'
p2876
sVfraction_NN
p2877
S'xDQOx'
p2878
sVscope_NN
p2879
S'PC85v'
p2880
sVnumber_NNS
p2881
S'XJ-Ah'
p2882
sVdivided_VBN
p2883
S'KJc9H'
p2884
sVsinnerich_NN
p2885
S'Vac3B'
p2886
sVinsurance_NN
p2887
S'lrH9m'
p2888
sVfactor_NN
p2889
S'ivbZ7'
p2890
sVgoal_NNS
p2891
S'3v3e9'
p2892
sVsegment_NNS
p2893
S'g-kMO'
p2894
sVhave_VB
p2895
S'LXcQz'
p2896
sVsocietal_JJ
p2897
S'lLNze'
p2898
sVadjust_VB
p2899
S'MTY--'
p2900
sVmerchandise_NN
p2901
S'qffMe'
p2902
sVinvalidate_VB
p2903
S'gAevr'
p2904
sVresearcher_NN
p2905
S'6KWs8'
p2906
sVone_CD
p2907
S'RF6XJ'
p2908
sVconstruction_NN
p2909
S'LYxYi'
p2910
sVobservation_JJ
p2911
S'68xIK'
p2912
sVdecrease_VB
p2913
S'hsNyX'
p2914
sVflorida_JJ
p2915
S'iK_u2'
p2916
sVsignificant_JJ
p2917
S'qzcKb'
p2918
sVmodel_NNS
p2919
S'ldiCn'
p2920
sVform_NN
p2921
S'U3yae'
p2922
sVsignificantly_RB
p2923
S'VOdRu'
p2924
sVbrand_NNS
p2925
S'5xKae'
p2926
sVoffer_NN
p2927
S'oDmt0'
p2928
sVincreasingly_RB
p2929
S'hH2O8'
p2930
sVservicing_NN
p2931
S'8upzL'
p2932
sVfound_VBN
p2933
S'O1blP'
p2934
sVit_PRP$
p2935
S'U7tD2'
p2936
sVflash_NN
p2937
S'Tx3xm'
p2938
sVdirection_NN
p2939
S'uuuY1'
p2940
sVset_VBN
p2941
S'BTPW8'
p2942
sVstate_NN
p2943
S'EtEMz'
p2944
sVhuman_JJ
p2945
S'ufp6G'
p2946
sVasset_NNS
p2947
S'fx37Q'
p2948
sVaround_IN
p2949
S'_4Am_'
p2950
sVeffort_NNS
p2951
S'Bq-2v'
p2952
sVgroup_NNS
p2953
S'FmJzW'
p2954
sVpure_JJ
p2955
S'gHb7O'
p2956
s.